target datalayout = "e-m:e-p270:32:32-p271:32:32-p272:64:64-i64:64-i128:128-f80:128-n8:16:32:64-S128"
target triple = "x86_64-pc-linux-gnu"

; Function Attrs: mustprogress uwtable
define internal noundef i32 @_ZL25xtc_get_next_frame_numberP8_IO_FILEP3XDRi(ptr noundef %0, ptr noundef %1, i32 noundef %2) #0 {
  %4 = alloca i32, align 4
  %5 = alloca ptr, align 8
  %6 = alloca ptr, align 8
  %7 = alloca i32, align 4
  %8 = alloca i64, align 8
  %9 = alloca i32, align 4
  %10 = alloca float, align 4
  %11 = alloca i32, align 4
  %12 = alloca i32, align 4
  store ptr %0, ptr %5, align 8, !tbaa !31
  store ptr %1, ptr %6, align 8, !tbaa !17
  store i32 %2, ptr %7, align 4, !tbaa !13
  call void @llvm.lifetime.start.p0(i64 8, ptr %8) #11
  call void @llvm.lifetime.start.p0(i64 4, ptr %9) #11
  call void @llvm.lifetime.start.p0(i64 4, ptr %10) #11
  call void @llvm.lifetime.start.p0(i64 4, ptr %11) #11
  %13 = load ptr, ptr %5, align 8, !tbaa !31
  %14 = call noundef i64 @_Z9gmx_ftellP8_IO_FILE(ptr noundef %13)
  store i64 %14, ptr %8, align 8, !tbaa !23
  %15 = icmp slt i64 %14, 0
  br i1 %15, label %16, label %17

16:                                               ; preds = %3
  store i32 -1, ptr %4, align 4
  store i32 1, ptr %12, align 4
  br label %48

17:                                               ; preds = %3
  %18 = load ptr, ptr %6, align 8, !tbaa !17
  %19 = call noundef i32 @_Z7xdr_intP3XDRPi(ptr noundef %18, ptr noundef %9)
  br label %20

20:                                               ; preds = %47, %17
  br label %21

21:                                               ; preds = %20
  %22 = load ptr, ptr %5, align 8, !tbaa !31
  %23 = load ptr, ptr %6, align 8, !tbaa !17
  %24 = load i32, ptr %7, align 4, !tbaa !13
  %25 = call noundef i32 @_ZL19xtc_at_header_startP8_IO_FILEP3XDRiPiPf(ptr noundef %22, ptr noundef %23, i32 noundef %24, ptr noundef %9, ptr noundef %10)
  store i32 %25, ptr %11, align 4, !tbaa !13
  %26 = load i32, ptr %11, align 4, !tbaa !13
  %27 = icmp eq i32 %26, 1
  br i1 %27, label %28, label %36

28:                                               ; preds = %21
  %29 = load ptr, ptr %5, align 8, !tbaa !31
  %30 = load i64, ptr %8, align 8, !tbaa !23
  %31 = call noundef i32 @_Z9gmx_fseekP8_IO_FILEli(ptr noundef %29, i64 noundef %30, i32 noundef 0)
  %32 = icmp ne i32 %31, 0
  br i1 %32, label %33, label %34

33:                                               ; preds = %28
  store i32 -1, ptr %4, align 4
  store i32 1, ptr %12, align 4
  br label %48

34:                                               ; preds = %28
  %35 = load i32, ptr %9, align 4, !tbaa !13
  store i32 %35, ptr %4, align 4
  store i32 1, ptr %12, align 4
  br label %48

36:                                               ; preds = %21
  %37 = load i32, ptr %11, align 4, !tbaa !13
  %38 = icmp eq i32 %37, -1
  br i1 %38, label %39, label %46

39:                                               ; preds = %36
  %40 = load ptr, ptr %5, align 8, !tbaa !31
  %41 = load i64, ptr %8, align 8, !tbaa !23
  %42 = call noundef i32 @_Z9gmx_fseekP8_IO_FILEli(ptr noundef %40, i64 noundef %41, i32 noundef 0)
  %43 = icmp ne i32 %42, 0
  br i1 %43, label %44, label %45

44:                                               ; preds = %39
  store i32 -1, ptr %4, align 4
  store i32 1, ptr %12, align 4
  br label %48

45:                                               ; preds = %39
  br label %46

46:                                               ; preds = %45, %36
  br label %47

47:                                               ; preds = %46
  br label %20, !llvm.loop !73

48:                                               ; preds = %44, %34, %33, %16
  call void @llvm.lifetime.end.p0(i64 4, ptr %11) #11
  call void @llvm.lifetime.end.p0(i64 4, ptr %10) #11
  call void @llvm.lifetime.end.p0(i64 4, ptr %9) #11
  call void @llvm.lifetime.end.p0(i64 8, ptr %8) #11
  %49 = load i32, ptr %4, align 4
  ret i32 %49
}

; Function Attrs: mustprogress uwtable
define noundef i32 @_Z18xdr_xtc_seek_frameiP8_IO_FILEP3XDRi(i32 noundef %0, ptr noundef %1, ptr noundef %2, i32 noundef %3) #0 {
  %5 = alloca i32, align 4
  %6 = alloca i32, align 4
  %7 = alloca ptr, align 8
  %8 = alloca ptr, align 8
  %9 = alloca i32, align 4
  %10 = alloca i64, align 8
  %11 = alloca i64, align 8
  %12 = alloca i64, align 8
  %13 = alloca i32, align 4
  %14 = alloca i64, align 8
  %15 = alloca i32, align 4
  store i32 %0, ptr %6, align 4, !tbaa !13
  store ptr %1, ptr %7, align 8, !tbaa !31
  store ptr %2, ptr %8, align 8, !tbaa !17
  store i32 %3, ptr %9, align 4, !tbaa !13
  call void @llvm.lifetime.start.p0(i64 8, ptr %10) #11
  store i64 0, ptr %10, align 8, !tbaa !23
  call void @llvm.lifetime.start.p0(i64 8, ptr %11) #11
  call void @llvm.lifetime.start.p0(i64 8, ptr %12) #11
  call void @llvm.lifetime.start.p0(i64 4, ptr %13) #11
  call void @llvm.lifetime.start.p0(i64 8, ptr %14) #11
  %16 = load ptr, ptr %7, align 8, !tbaa !31
  %17 = call noundef i32 @_Z9gmx_fseekP8_IO_FILEli(ptr noundef %16, i64 noundef 0, i32 noundef 2)
  %18 = icmp ne i32 %17, 0
  br i1 %18, label %19, label %20

19:                                               ; preds = %4
  store i32 -1, ptr %5, align 4
  store i32 1, ptr %15, align 4
  br label %107

20:                                               ; preds = %4
  %21 = load ptr, ptr %7, align 8, !tbaa !31
  %22 = call noundef i64 @_Z9gmx_ftellP8_IO_FILE(ptr noundef %21)
  store i64 %22, ptr %11, align 8, !tbaa !23
  %23 = icmp slt i64 %22, 0
  br i1 %23, label %24, label %25

24:                                               ; preds = %20
  store i32 -1, ptr %5, align 4
  store i32 1, ptr %15, align 4
  br label %107

25:                                               ; preds = %20
  %26 = load i64, ptr %11, align 8, !tbaa !23
  %27 = sdiv i64 %26, 4
  store i64 %27, ptr %11, align 8, !tbaa !23
  %28 = load i64, ptr %11, align 8, !tbaa !23
  %29 = mul nsw i64 %28, 4
  store i64 %29, ptr %11, align 8, !tbaa !23
  %30 = load i64, ptr %11, align 8, !tbaa !23
  %31 = sdiv i64 %30, 2
  %32 = sdiv i64 %31, 4
  %33 = mul nsw i64 %32, 4
  store i64 %33, ptr %14, align 8, !tbaa !23
  %34 = load ptr, ptr %7, align 8, !tbaa !31
  %35 = load i64, ptr %14, align 8, !tbaa !23
  %36 = call noundef i32 @_Z9gmx_fseekP8_IO_FILEli(ptr noundef %34, i64 noundef %35, i32 noundef 0)
  %37 = icmp ne i32 %36, 0
  br i1 %37, label %38, label %39

38:                                               ; preds = %25
  store i32 -1, ptr %5, align 4
  store i32 1, ptr %15, align 4
  br label %107

39:                                               ; preds = %25
  br label %40

40:                                               ; preds = %81, %39
  br label %41

41:                                               ; preds = %40
  %42 = load ptr, ptr %7, align 8, !tbaa !31
  %43 = load ptr, ptr %8, align 8, !tbaa !17
  %44 = load i32, ptr %9, align 4, !tbaa !13
  %45 = call noundef i32 @_ZL25xtc_get_next_frame_numberP8_IO_FILEP3XDRi(ptr noundef %42, ptr noundef %43, i32 noundef %44)
  store i32 %45, ptr %13, align 4, !tbaa !13
  %46 = load i32, ptr %13, align 4, !tbaa !13
  %47 = icmp slt i32 %46, 0
  br i1 %47, label %48, label %49

48:                                               ; preds = %41
  store i32 -1, ptr %5, align 4
  store i32 1, ptr %15, align 4
  br label %107

49:                                               ; preds = %41
  %50 = load i32, ptr %13, align 4, !tbaa !13
  %51 = load i32, ptr %6, align 4, !tbaa !13
  %52 = icmp ne i32 %50, %51
  br i1 %52, label %53, label %80

53:                                               ; preds = %49
  %54 = load i64, ptr %10, align 8, !tbaa !23
  %55 = load i64, ptr %11, align 8, !tbaa !23
  %56 = sub nsw i64 %54, %55
  %57 = call i64 @llvm.abs.i64(i64 %56, i1 true)
  %58 = icmp sgt i64 %57, 16
  br i1 %58, label %59, label %80

59:                                               ; preds = %53
  %60 = load i32, ptr %13, align 4, !tbaa !13
  %61 = load i32, ptr %6, align 4, !tbaa !13
  %62 = icmp slt i32 %60, %61
  br i1 %62, label %63, label %65

63:                                               ; preds = %59
  %64 = load i64, ptr %14, align 8, !tbaa !23
  store i64 %64, ptr %10, align 8, !tbaa !23
  br label %67

65:                                               ; preds = %59
  %66 = load i64, ptr %14, align 8, !tbaa !23
  store i64 %66, ptr %11, align 8, !tbaa !23
  br label %67

67:                                               ; preds = %65, %63
  %68 = load i64, ptr %11, align 8, !tbaa !23
  %69 = load i64, ptr %10, align 8, !tbaa !23
  %70 = add nsw i64 %68, %69
  %71 = sdiv i64 %70, 2
  %72 = sdiv i64 %71, 4
  %73 = mul nsw i64 %72, 4
  store i64 %73, ptr %14, align 8, !tbaa !23
  %74 = load ptr, ptr %7, align 8, !tbaa !31
  %75 = load i64, ptr %14, align 8, !tbaa !23
  %76 = call noundef i32 @_Z9gmx_fseekP8_IO_FILEli(ptr noundef %74, i64 noundef %75, i32 noundef 0)
  %77 = icmp ne i32 %76, 0
  br i1 %77, label %78, label %79

78:                                               ; preds = %67
  store i32 -1, ptr %5, align 4
  store i32 1, ptr %15, align 4
  br label %107

79:                                               ; preds = %67
  br label %81

80:                                               ; preds = %53, %49
  br label %82

81:                                               ; preds = %79
  br label %40, !llvm.loop !72

82:                                               ; preds = %80
  %83 = load i64, ptr %14, align 8, !tbaa !23
  %84 = icmp sle i64 %83, 16
  br i1 %84, label %85, label %87

85:                                               ; preds = %82
  %86 = load i64, ptr %10, align 8, !tbaa !23
  store i64 %86, ptr %14, align 8, !tbaa !23
  br label %87

87:                                               ; preds = %85, %82
  %88 = load ptr, ptr %7, align 8, !tbaa !31
  %89 = load i64, ptr %14, align 8, !tbaa !23
  %90 = call noundef i32 @_Z9gmx_fseekP8_IO_FILEli(ptr noundef %88, i64 noundef %89, i32 noundef 0)
  %91 = icmp ne i32 %90, 0
  br i1 %91, label %92, label %93

92:                                               ; preds = %87
  store i32 -1, ptr %5, align 4
  store i32 1, ptr %15, align 4
  br label %107

93:                                               ; preds = %87
  %94 = load ptr, ptr %7, align 8, !tbaa !31
  %95 = load ptr, ptr %8, align 8, !tbaa !17
  %96 = load i32, ptr %9, align 4, !tbaa !13
  %97 = call noundef i64 @_ZL24xtc_get_next_frame_startP8_IO_FILEP3XDRi(ptr noundef %94, ptr noundef %95, i32 noundef %96)
  store i64 %97, ptr %12, align 8, !tbaa !23
  %98 = icmp slt i64 %97, 0
  br i1 %98, label %99, label %100

99:                                               ; preds = %93
  store i32 -1, ptr %5, align 4
  store i32 1, ptr %15, align 4
  br label %107

100:                                              ; preds = %93
  %101 = load ptr, ptr %7, align 8, !tbaa !31
  %102 = load i64, ptr %12, align 8, !tbaa !23
  %103 = call noundef i32 @_Z9gmx_fseekP8_IO_FILEli(ptr noundef %101, i64 noundef %102, i32 noundef 0)
  %104 = icmp ne i32 %103, 0
  br i1 %104, label %105, label %106

105:                                              ; preds = %100
  store i32 -1, ptr %5, align 4
  store i32 1, ptr %15, align 4
  br label %107

106:                                              ; preds = %100
  store i32 0, ptr %5, align 4
  store i32 1, ptr %15, align 4
  br label %107

107:                                              ; preds = %106, %105, %99, %92, %78, %48, %38, %24, %19
  call void @llvm.lifetime.end.p0(i64 8, ptr %14) #11
  call void @llvm.lifetime.end.p0(i64 4, ptr %13) #11
  call void @llvm.lifetime.end.p0(i64 8, ptr %12) #11
  call void @llvm.lifetime.end.p0(i64 8, ptr %11) #11
  call void @llvm.lifetime.end.p0(i64 8, ptr %10) #11
  %108 = load i32, ptr %5, align 4
  ret i32 %108
}