; Function Attrs: mustprogress uwtable
define noundef range(i32 -1, 1) i32 @_Z18xdr_xtc_seek_frameiP8_IO_FILEP3XDRi(i32 noundef %0, ptr noundef %1, ptr noundef %2, i32 noundef %3) local_unnamed_addr #3 {
  %5 = alloca i32, align 4
  %6 = alloca float, align 4
  %7 = tail call noundef i32 @_Z9gmx_fseekP8_IO_FILEli(ptr noundef %1, i64 noundef 0, i32 noundef 2)
  %.not = icmp eq i32 %7, 0
  br i1 %.not, label %8, label %.loopexit

8:                                                ; preds = %4
  %9 = tail call noundef i64 @_Z9gmx_ftellP8_IO_FILE(ptr noundef %1)
  %10 = icmp slt i64 %9, 0
  br i1 %10, label %.loopexit, label %11

11:                                               ; preds = %8
  %12 = lshr i64 %9, 1
  %13 = and i64 %12, 4611686018427387900
  %14 = tail call noundef i32 @_Z9gmx_fseekP8_IO_FILEli(ptr noundef %1, i64 noundef %13, i32 noundef 0)
  %.not41 = icmp eq i32 %14, 0
  br i1 %.not41, label %.preheader.preheader, label %.loopexit

.preheader.preheader:                             ; preds = %11
  %15 = and i64 %9, 9223372036854775804
  br label %.preheader

.preheader:                                       ; preds = %.preheader.preheader, %33
  %.035 = phi i64 [ %.035..0, %33 ], [ %15, %.preheader.preheader ]
  %.033 = phi i64 [ %.0..033, %33 ], [ 0, %.preheader.preheader ]
  %.0 = phi i64 [ %37, %33 ], [ %13, %.preheader.preheader ]
  call void @llvm.lifetime.start.p0(i64 4, ptr nonnull %5) #17
  call void @llvm.lifetime.start.p0(i64 4, ptr nonnull %6) #17
  %16 = call noundef i64 @_Z9gmx_ftellP8_IO_FILE(ptr noundef %1)
  %17 = icmp slt i64 %16, 0
  br i1 %17, label %_ZL25xtc_get_next_frame_numberP8_IO_FILEP3XDRi.exit.thread, label %18

18:                                               ; preds = %.preheader
  %19 = call noundef i32 @_Z7xdr_intP3XDRPi(ptr noundef %2, ptr noundef nonnull %5)
  br label %20

20:                                               ; preds = %.backedge, %18
  %21 = call fastcc noundef i32 @_ZL19xtc_at_header_startP8_IO_FILEP3XDRiPiPf(ptr noundef %1, ptr noundef %2, i32 noundef %3, ptr noundef %5, ptr noundef %6)
  switch i32 %21, label %.backedge [
    i32 1, label %22
    i32 -1, label %25
  ]

22:                                               ; preds = %20
  %23 = call noundef i32 @_Z9gmx_fseekP8_IO_FILEli(ptr noundef %1, i64 noundef %16, i32 noundef 0)
  %.not13.i = icmp eq i32 %23, 0
  %24 = load i32, ptr %5, align 4
  br i1 %.not13.i, label %_ZL25xtc_get_next_frame_numberP8_IO_FILEP3XDRi.exit, label %_ZL25xtc_get_next_frame_numberP8_IO_FILEP3XDRi.exit.thread

25:                                               ; preds = %20
  %26 = call noundef i32 @_Z9gmx_fseekP8_IO_FILEli(ptr noundef %1, i64 noundef %16, i32 noundef 0)
  %.not.i = icmp eq i32 %26, 0
  br i1 %.not.i, label %.backedge, label %_ZL25xtc_get_next_frame_numberP8_IO_FILEP3XDRi.exit.thread

.backedge:                                        ; preds = %25, %20
  br label %20, !llvm.loop !52

_ZL25xtc_get_next_frame_numberP8_IO_FILEP3XDRi.exit.thread: ; preds = %.preheader, %22, %25
  call void @llvm.lifetime.end.p0(i64 4, ptr nonnull %6) #17
  call void @llvm.lifetime.end.p0(i64 4, ptr nonnull %5) #17
  br label %.loopexit

_ZL25xtc_get_next_frame_numberP8_IO_FILEP3XDRi.exit: ; preds = %22
  call void @llvm.lifetime.end.p0(i64 4, ptr nonnull %6) #17
  call void @llvm.lifetime.end.p0(i64 4, ptr nonnull %5) #17
  %27 = icmp slt i32 %24, 0
  br i1 %27, label %.loopexit, label %28

28:                                               ; preds = %_ZL25xtc_get_next_frame_numberP8_IO_FILEP3XDRi.exit
  %.not42 = icmp eq i32 %24, %0
  br i1 %.not42, label %39, label %29

29:                                               ; preds = %28
  %30 = sub nsw i64 %.033, %.035
  %31 = call i64 @llvm.abs.i64(i64 %30, i1 true)
  %32 = icmp samesign ugt i64 %31, 16
  br i1 %32, label %33, label %39

33:                                               ; preds = %29
  %34 = icmp slt i32 %24, %0
  %.035..0 = select i1 %34, i64 %.035, i64 %.0
  %.0..033 = select i1 %34, i64 %.0, i64 %.033
  %35 = add nuw nsw i64 %.035..0, %.0..033
  %36 = lshr i64 %35, 1
  %37 = and i64 %36, 9223372036854775804
  %38 = call noundef i32 @_Z9gmx_fseekP8_IO_FILEli(ptr noundef %1, i64 noundef %37, i32 noundef 0)
  %.not45 = icmp eq i32 %38, 0
  br i1 %.not45, label %.preheader, label %.loopexit, !llvm.loop !53

39:                                               ; preds = %28, %29
  %40 = icmp samesign ult i64 %.0, 17
  %spec.select = select i1 %40, i64 %.033, i64 %.0
  %41 = call noundef i32 @_Z9gmx_fseekP8_IO_FILEli(ptr noundef %1, i64 noundef %spec.select, i32 noundef 0)
  %.not43 = icmp eq i32 %41, 0
  br i1 %.not43, label %42, label %.loopexit

42:                                               ; preds = %39
  %43 = call fastcc noundef i64 @_ZL24xtc_get_next_frame_startP8_IO_FILEP3XDRi(ptr noundef %1, ptr noundef %2, i32 noundef %3)
  %44 = icmp slt i64 %43, 0
  br i1 %44, label %.loopexit, label %45

45:                                               ; preds = %42
  %46 = call noundef i32 @_Z9gmx_fseekP8_IO_FILEli(ptr noundef %1, i64 noundef %43, i32 noundef 0)
  %.not44 = icmp ne i32 %46, 0
  %. = sext i1 %.not44 to i32
  br label %.loopexit

.loopexit:                                        ; preds = %33, %_ZL25xtc_get_next_frame_numberP8_IO_FILEP3XDRi.exit, %_ZL25xtc_get_next_frame_numberP8_IO_FILEP3XDRi.exit.thread, %45, %42, %39, %11, %8, %4
  %.032 = phi i32 [ -1, %4 ], [ -1, %8 ], [ -1, %11 ], [ -1, %39 ], [ -1, %42 ], [ %., %45 ], [ -1, %_ZL25xtc_get_next_frame_numberP8_IO_FILEP3XDRi.exit.thread ], [ -1, %_ZL25xtc_get_next_frame_numberP8_IO_FILEP3XDRi.exit ], [ -1, %33 ]
  ret i32 %.032
}